; Function Attrs: nounwind uwtable
define ptr @l_Lean_Elab_elabTerminationHints___rarg___lambda__7(ptr noundef %0, ptr noundef %1, ptr noundef %2, ptr readnone captures(none) %3, ptr noundef %4) local_unnamed_addr #1 {
  %6 = getelementptr inbounds nuw i8, ptr %0, i64 8
  %7 = getelementptr inbounds nuw i8, ptr %0, i64 16
  %8 = load ptr, ptr %7, align 8, !tbaa !10
  %9 = ptrtoint ptr %8 to i64
  %10 = and i64 %9, 1
  %.not = icmp eq i64 %10, 0
  br i1 %.not, label %11, label %lean_inc.exit23

11:                                               ; preds = %5
  %.val.i = load i32, ptr %8, align 4, !tbaa !4
  %12 = icmp sgt i32 %.val.i, 0
  br i1 %12, label %13, label %15, !prof !9

13:                                               ; preds = %11
  %14 = add nuw i32 %.val.i, 1
  store i32 %14, ptr %8, align 4, !tbaa !4
  br label %lean_inc.exit23

15:                                               ; preds = %11
  %.not.i26 = icmp eq i32 %.val.i, 0
  br i1 %.not.i26, label %lean_inc.exit23, label %16

16:                                               ; preds = %15
  tail call void @lean_inc_ref_cold(ptr noundef nonnull %8) #8
  br label %lean_inc.exit23

lean_inc.exit23:                                  ; preds = %16, %15, %13, %5
  %17 = load ptr, ptr %6, align 8, !tbaa !10
  %18 = ptrtoint ptr %17 to i64
  %19 = and i64 %18, 1
  %.not34 = icmp eq i64 %19, 0
  br i1 %.not34, label %20, label %lean_inc.exit22

20:                                               ; preds = %lean_inc.exit23
  %.val.i27 = load i32, ptr %17, align 4, !tbaa !4
  %21 = icmp sgt i32 %.val.i27, 0
  br i1 %21, label %22, label %24, !prof !9

22:                                               ; preds = %20
  %23 = add nuw i32 %.val.i27, 1
  store i32 %23, ptr %17, align 4, !tbaa !4
  br label %lean_inc.exit22

24:                                               ; preds = %20
  %.not.i28 = icmp eq i32 %.val.i27, 0
  br i1 %.not.i28, label %lean_inc.exit22, label %25

25:                                               ; preds = %24
  tail call void @lean_inc_ref_cold(ptr noundef nonnull %17) #8
  br label %lean_inc.exit22

lean_inc.exit22:                                  ; preds = %25, %24, %22, %lean_inc.exit23
  %26 = ptrtoint ptr %0 to i64
  %27 = and i64 %26, 1
  %.not35 = icmp eq i64 %27, 0
  br i1 %.not35, label %28, label %lean_dec.exit21

28:                                               ; preds = %lean_inc.exit22
  %29 = load i32, ptr %0, align 4, !tbaa !4
  %30 = icmp sgt i32 %29, 1
  br i1 %30, label %31, label %33, !prof !9

31:                                               ; preds = %28
  %32 = add nsw i32 %29, -1
  store i32 %32, ptr %0, align 4, !tbaa !4
  br label %lean_dec.exit21

33:                                               ; preds = %28
  %.not.i = icmp eq i32 %29, 0
  br i1 %.not.i, label %lean_dec.exit21, label %34

34:                                               ; preds = %33
  tail call void @lean_dec_ref_cold(ptr noundef nonnull %0) #8
  br label %lean_dec.exit21

lean_dec.exit21:                                  ; preds = %34, %33, %31, %lean_inc.exit22
  %35 = getelementptr inbounds nuw i8, ptr %17, i64 16
  %36 = load ptr, ptr %35, align 8, !tbaa !10
  %37 = ptrtoint ptr %36 to i64
  %38 = and i64 %37, 1
  %.not36 = icmp eq i64 %38, 0
  br i1 %.not36, label %39, label %lean_inc.exit

39:                                               ; preds = %lean_dec.exit21
  %.val.i30 = load i32, ptr %36, align 4, !tbaa !4
  %40 = icmp sgt i32 %.val.i30, 0
  br i1 %40, label %41, label %43, !prof !9

41:                                               ; preds = %39
  %42 = add nuw i32 %.val.i30, 1
  store i32 %42, ptr %36, align 4, !tbaa !4
  br label %lean_inc.exit

43:                                               ; preds = %39
  %.not.i31 = icmp eq i32 %.val.i30, 0
  br i1 %.not.i31, label %lean_inc.exit, label %44

44:                                               ; preds = %43
  tail call void @lean_inc_ref_cold(ptr noundef nonnull %36) #8
  br label %lean_inc.exit

lean_inc.exit:                                    ; preds = %44, %43, %41, %lean_dec.exit21
  br i1 %.not34, label %45, label %lean_dec.exit

45:                                               ; preds = %lean_inc.exit
  %46 = load i32, ptr %17, align 4, !tbaa !4
  %47 = icmp sgt i32 %46, 1
  br i1 %47, label %48, label %50, !prof !9

48:                                               ; preds = %45
  %49 = add nsw i32 %46, -1
  store i32 %49, ptr %17, align 4, !tbaa !4
  br label %lean_dec.exit

50:                                               ; preds = %45
  %.not.i24 = icmp eq i32 %46, 0
  br i1 %.not.i24, label %lean_dec.exit, label %51

51:                                               ; preds = %50
  tail call void @lean_dec_ref_cold(ptr noundef nonnull %17) #8
  br label %lean_dec.exit

lean_dec.exit:                                    ; preds = %51, %50, %48, %lean_inc.exit
  tail call void @lean_inc_heartbeat() #8
  %52 = tail call noalias ptr @mi_malloc_small(i64 noundef 32) #8
  %53 = icmp eq ptr %52, null
  br i1 %53, label %54, label %lean_alloc_ctor.exit

54:                                               ; preds = %lean_dec.exit
  tail call void @lean_internal_panic_out_of_memory() #9
  unreachable

lean_alloc_ctor.exit:                             ; preds = %lean_dec.exit
  %55 = getelementptr inbounds nuw i8, ptr %52, i64 4
  %56 = getelementptr inbounds nuw i8, ptr %52, i64 24
  store i64 0, ptr %56, align 8, !tbaa !16
  store i32 1, ptr %52, align 4, !tbaa !4
  store i32 131104, ptr %55, align 4
  %57 = getelementptr inbounds nuw i8, ptr %52, i64 8
  store ptr %1, ptr %57, align 8, !tbaa !10
  %58 = getelementptr inbounds nuw i8, ptr %52, i64 16
  store ptr %4, ptr %58, align 8, !tbaa !10
  tail call void @lean_inc_heartbeat() #8
  %59 = tail call noalias ptr @mi_malloc_small(i64 noundef 16) #8
  %60 = icmp eq ptr %59, null
  br i1 %60, label %61, label %lean_alloc_ctor.exit33

61:                                               ; preds = %lean_alloc_ctor.exit
  tail call void @lean_internal_panic_out_of_memory() #9
  unreachable

lean_alloc_ctor.exit33:                           ; preds = %lean_alloc_ctor.exit
  %62 = getelementptr inbounds nuw i8, ptr %59, i64 4
  store i32 1, ptr %59, align 4, !tbaa !4
  store i32 16842768, ptr %62, align 4
  %63 = getelementptr inbounds nuw i8, ptr %59, i64 8
  store ptr %52, ptr %63, align 8, !tbaa !10
  %64 = tail call ptr @lean_apply_2(ptr noundef %36, ptr noundef nonnull inttoptr (i64 1 to ptr), ptr noundef nonnull %59) #8
  %65 = tail call ptr @lean_apply_4(ptr noundef %8, ptr noundef nonnull inttoptr (i64 1 to ptr), ptr noundef nonnull inttoptr (i64 1 to ptr), ptr noundef %64, ptr noundef %2) #8
  ret ptr %65
}